target datalayout = "e-m:e-p270:32:32-p271:32:32-p272:64:64-i64:64-i128:128-f80:128-n8:16:32:64-S128"
target triple = "x86_64-pc-linux-gnu"

%struct.JNINativeInterface_ = type { ptr, ptr, ptr, ptr, ptr, ptr, ptr, ptr, ptr, ptr, ptr, ptr, ptr, ptr, ptr, ptr, ptr, ptr, ptr, ptr, ptr, ptr, ptr, ptr, ptr, ptr, ptr, ptr, ptr, ptr, ptr, ptr, ptr, ptr, ptr, ptr, ptr, ptr, ptr, ptr, ptr, ptr, ptr, ptr, ptr, ptr, ptr, ptr, ptr, ptr, ptr, ptr, ptr, ptr, ptr, ptr, ptr, ptr, ptr, ptr, ptr, ptr, ptr, ptr, ptr, ptr, ptr, ptr, ptr, ptr, ptr, ptr, ptr, ptr, ptr, ptr, ptr, ptr, ptr, ptr, ptr, ptr, ptr, ptr, ptr, ptr, ptr, ptr, ptr, ptr, ptr, ptr, ptr, ptr, ptr, ptr, ptr, ptr, ptr, ptr, ptr, ptr, ptr, ptr, ptr, ptr, ptr, ptr, ptr, ptr, ptr, ptr, ptr, ptr, ptr, ptr, ptr, ptr, ptr, ptr, ptr, ptr, ptr, ptr, ptr, ptr, ptr, ptr, ptr, ptr, ptr, ptr, ptr, ptr, ptr, ptr, ptr, ptr, ptr, ptr, ptr, ptr, ptr, ptr, ptr, ptr, ptr, ptr, ptr, ptr, ptr, ptr, ptr, ptr, ptr, ptr, ptr, ptr, ptr, ptr, ptr, ptr, ptr, ptr, ptr, ptr, ptr, ptr, ptr, ptr, ptr, ptr, ptr, ptr, ptr, ptr, ptr, ptr, ptr, ptr, ptr, ptr, ptr, ptr, ptr, ptr, ptr, ptr, ptr, ptr, ptr, ptr, ptr, ptr, ptr, ptr, ptr, ptr, ptr, ptr, ptr, ptr, ptr, ptr, ptr, ptr, ptr, ptr, ptr, ptr, ptr, ptr, ptr, ptr, ptr, ptr, ptr, ptr, ptr, ptr, ptr, ptr, ptr, ptr, ptr, ptr, ptr, ptr, ptr, ptr, ptr, ptr, ptr, ptr, ptr }

@sFallbackInternalError = internal global ptr null, align 8
@.str = private unnamed_addr constant [26 x i8] c"isSafeForJNICalls(jnienv)\00", align 1
@.str.1 = private unnamed_addr constant [64 x i8] c"src/java.instrument/share/native/libinstrument/JavaExceptions.c\00", align 1
@.str.8 = private unnamed_addr constant [24 x i8] c"java/lang/InternalError\00", align 1

; Function Attrs: nounwind uwtable
define hidden ptr @createInternalError(ptr noundef %0, ptr noundef %1) #0 {
  %3 = alloca ptr, align 8
  %4 = alloca ptr, align 8
  store ptr %0, ptr %3, align 8
  store ptr %1, ptr %4, align 8
  %5 = load ptr, ptr %3, align 8
  %6 = load ptr, ptr %4, align 8
  %7 = call ptr @createThrowable(ptr noundef %5, ptr noundef @.str.8, ptr noundef %6)
  ret ptr %7
}

; Function Attrs: nounwind uwtable
define hidden zeroext i8 @isSafeForJNICalls(ptr noundef %0) #0 {
  %2 = alloca ptr, align 8
  store ptr %0, ptr %2, align 8
  %3 = load ptr, ptr %2, align 8
  %4 = load ptr, ptr %3, align 8
  %5 = getelementptr inbounds %struct.JNINativeInterface_, ptr %4, i32 0, i32 228
  %6 = load ptr, ptr %5, align 8
  %7 = load ptr, ptr %2, align 8
  %8 = call zeroext i8 %6(ptr noundef %7)
  %9 = icmp ne i8 %8, 0
  %10 = xor i1 %9, true
  %11 = zext i1 %10 to i32
  %12 = trunc i32 %11 to i8
  ret i8 %12
}

; Function Attrs: nounwind uwtable
define hidden zeroext i8 @initializeFallbackError(ptr noundef %0) #0 {
  %2 = alloca ptr, align 8
  store ptr %0, ptr %2, align 8
  %3 = load ptr, ptr %2, align 8
  %4 = call zeroext i8 @isSafeForJNICalls(ptr noundef %3)
  call void @JPLISAssertCondition(i8 noundef zeroext %4, ptr noundef @.str, ptr noundef @.str.1, i32 noundef 70)
  %5 = load ptr, ptr %2, align 8
  %6 = call ptr @createInternalError(ptr noundef %5, ptr noundef null)
  store ptr %6, ptr @sFallbackInternalError, align 8
  %7 = load ptr, ptr %2, align 8
  %8 = call zeroext i8 @isSafeForJNICalls(ptr noundef %7)
  call void @JPLISAssertCondition(i8 noundef zeroext %8, ptr noundef @.str, ptr noundef @.str.1, i32 noundef 72)
  %9 = load ptr, ptr @sFallbackInternalError, align 8
  %10 = icmp ne ptr %9, null
  %11 = zext i1 %10 to i32
  %12 = trunc i32 %11 to i8
  ret i8 %12
}