; Function Attrs: nounwind uwtable
define hidden zeroext range(i8 0, 2) i8 @initializeFallbackError(ptr noundef %0) local_unnamed_addr #1 {
  %2 = load ptr, ptr %0, align 8
  %3 = getelementptr inbounds i8, ptr %2, i64 1824
  %4 = load ptr, ptr %3, align 8
  %5 = tail call zeroext i8 %4(ptr noundef nonnull %0) #3
  %.not.i = icmp eq i8 %5, 0
  %6 = zext i1 %.not.i to i8
  tail call void @JPLISAssertCondition(i8 noundef zeroext %6, ptr noundef nonnull @.str, ptr noundef nonnull @.str.1, i32 noundef 70) #3
  %7 = tail call ptr @createThrowable(ptr noundef nonnull %0, ptr noundef nonnull @.str.8, ptr noundef null)
  store ptr %7, ptr @sFallbackInternalError, align 8
  %8 = load ptr, ptr %0, align 8
  %9 = getelementptr inbounds i8, ptr %8, i64 1824
  %10 = load ptr, ptr %9, align 8
  %11 = tail call zeroext i8 %10(ptr noundef nonnull %0) #3
  %.not.i3 = icmp eq i8 %11, 0
  %12 = zext i1 %.not.i3 to i8
  tail call void @JPLISAssertCondition(i8 noundef zeroext %12, ptr noundef nonnull @.str, ptr noundef nonnull @.str.1, i32 noundef 72) #3
  %13 = load ptr, ptr @sFallbackInternalError, align 8
  %14 = icmp ne ptr %13, null
  %15 = zext i1 %14 to i8
  ret i8 %15
}